; Function Attrs: mustprogress uwtable
define hidden noundef i64 @_ZNK6Assimp16CIOStreamWrapper4TellEv(ptr nocapture noundef nonnull readonly align 8 dereferenceable(24) %this) unnamed_addr #4 align 2 {
entry:
  %mFile = getelementptr inbounds i8, ptr %this, i64 8
  %0 = load ptr, ptr %mFile, align 8
  %TellProc = getelementptr inbounds i8, ptr %0, i64 16
  %1 = load ptr, ptr %TellProc, align 8
  %call = tail call noundef i64 %1(ptr noundef %0)
  ret i64 %call
}